; Function Attrs: mustprogress nounwind uwtable
define void @_ZN4base36PersistentSparseHistogramDataManagerD2Ev(ptr noundef nonnull align 8 dereferenceable(112) %0) unnamed_addr #2 align 2 personality ptr @__gxx_personality_v0 {
  %2 = getelementptr inbounds nuw i8, ptr %0, i64 72
  tail call void @_ZN4base8internal8LockImplD1Ev(ptr noundef nonnull align 8 dereferenceable(40) %2) #21
  %3 = getelementptr inbounds nuw i8, ptr %0, i64 24
  %4 = getelementptr inbounds nuw i8, ptr %0, i64 40
  %5 = load ptr, ptr %4, align 8, !tbaa !26
  invoke void @_ZNSt8_Rb_treeImSt4pairIKmSt10unique_ptrIN4base26PersistentSampleMapRecordsESt14default_deleteIS4_EEESt10_Select1stIS8_ESt4lessImESaIS8_EE8_M_eraseEPSt13_Rb_tree_nodeIS8_E(ptr noundef nonnull align 8 dereferenceable(48) %3, ptr noundef %5)
          to label %_ZNSt3mapImSt10unique_ptrIN4base26PersistentSampleMapRecordsESt14default_deleteIS2_EESt4lessImESaISt4pairIKmS5_EEED2Ev.exit unwind label %6

6:                                                ; preds = %1
  %7 = landingpad { ptr, i32 }
          catch ptr null
  %8 = extractvalue { ptr, i32 } %7, 0
  tail call void @__clang_call_terminate(ptr %8) #22
  unreachable

_ZNSt3mapImSt10unique_ptrIN4base26PersistentSampleMapRecordsESt14default_deleteIS2_EESt4lessImESaISt4pairIKmS5_EEED2Ev.exit: ; preds = %1
  ret void
}